target datalayout = "e-m:e-p270:32:32-p271:32:32-p272:64:64-i64:64-i128:128-f80:128-n8:16:32:64-S128"
target triple = "x86_64-pc-linux-gnu"

%struct.If_Cut_t_ = type <{ float, float, float, float, i32, i32, i32, i64, [0 x i32] }>

@.str.1 = private unnamed_addr constant [2 x i8] c"{\00", align 1
@.str.2 = private unnamed_addr constant [6 x i8] c" %s%d\00", align 1
@.str.3 = private unnamed_addr constant [2 x i8] c"!\00", align 1
@.str.4 = private unnamed_addr constant [1 x i8] zeroinitializer, align 1
@.str.5 = private unnamed_addr constant [4 x i8] c" }\0A\00", align 1

; Function Attrs: inlinehint nounwind uwtable
define internal i32 @If_CutLeafBit(ptr noundef %0, i32 noundef %1) #2 {
  %3 = alloca ptr, align 8
  %4 = alloca i32, align 4
  store ptr %0, ptr %3, align 8, !tbaa !15
  store i32 %1, ptr %4, align 4, !tbaa !8
  %5 = load ptr, ptr %3, align 8, !tbaa !15
  %6 = getelementptr inbounds nuw %struct.If_Cut_t_, ptr %5, i32 0, i32 5
  %7 = load i32, ptr %6, align 4, !tbaa !98
  %8 = load i32, ptr %4, align 4, !tbaa !8
  %9 = ashr i32 %7, %8
  %10 = and i32 %9, 1
  ret i32 %10
}

; Function Attrs: nounwind uwtable
define void @If_CutPrint(ptr noundef %0) #0 {
  %2 = alloca ptr, align 8
  %3 = alloca i32, align 4
  store ptr %0, ptr %2, align 8, !tbaa !15
  call void @llvm.lifetime.start.p0(i64 4, ptr %3) #9
  call void (i32, ptr, ...) @Abc_Print(i32 noundef 1, ptr noundef @.str.1)
  store i32 0, ptr %3, align 4, !tbaa !8
  br label %4

4:                                                ; preds = %25, %1
  %5 = load i32, ptr %3, align 4, !tbaa !8
  %6 = load ptr, ptr %2, align 8, !tbaa !15
  %7 = getelementptr inbounds nuw %struct.If_Cut_t_, ptr %6, i32 0, i32 7
  %8 = load i64, ptr %7, align 4
  %9 = lshr i64 %8, 24
  %10 = and i64 %9, 255
  %11 = trunc i64 %10 to i32
  %12 = icmp ult i32 %5, %11
  br i1 %12, label %13, label %28

13:                                               ; preds = %4
  %14 = load ptr, ptr %2, align 8, !tbaa !15
  %15 = load i32, ptr %3, align 4, !tbaa !8
  %16 = call i32 @If_CutLeafBit(ptr noundef %14, i32 noundef %15)
  %17 = icmp ne i32 %16, 0
  %18 = select i1 %17, ptr @.str.3, ptr @.str.4
  %19 = load ptr, ptr %2, align 8, !tbaa !15
  %20 = getelementptr inbounds nuw %struct.If_Cut_t_, ptr %19, i32 0, i32 8
  %21 = load i32, ptr %3, align 4, !tbaa !8
  %22 = zext i32 %21 to i64
  %23 = getelementptr inbounds nuw [0 x i32], ptr %20, i64 0, i64 %22
  %24 = load i32, ptr %23, align 4, !tbaa !8
  call void (i32, ptr, ...) @Abc_Print(i32 noundef 1, ptr noundef @.str.2, ptr noundef %18, i32 noundef %24)
  br label %25

25:                                               ; preds = %13
  %26 = load i32, ptr %3, align 4, !tbaa !8
  %27 = add i32 %26, 1
  store i32 %27, ptr %3, align 4, !tbaa !8
  br label %4, !llvm.loop !27

28:                                               ; preds = %4
  call void (i32, ptr, ...) @Abc_Print(i32 noundef 1, ptr noundef @.str.5)
  call void @llvm.lifetime.end.p0(i64 4, ptr %3) #9
  ret void
}