; Function Attrs: nounwind uwtable
define void @If_CutPrint(ptr noundef readonly captures(none) %0) local_unnamed_addr #0 {
  tail call void (i32, ptr, ...) @Abc_Print(i32 noundef 1, ptr noundef nonnull @.str.1)
  %2 = getelementptr inbounds nuw i8, ptr %0, i64 28
  %3 = load i64, ptr %2, align 4
  %4 = and i64 %3, 4278190080
  %.not7 = icmp eq i64 %4, 0
  br i1 %.not7, label %._crit_edge, label %.lr.ph

.lr.ph:                                           ; preds = %1
  %5 = getelementptr i8, ptr %0, i64 20
  %6 = getelementptr inbounds nuw i8, ptr %0, i64 36
  br label %7

7:                                                ; preds = %.lr.ph, %7
  %indvars.iv = phi i64 [ 0, %.lr.ph ], [ %indvars.iv.next, %7 ]
  %.val = load i32, ptr %5, align 4, !tbaa !19
  %8 = trunc nuw nsw i64 %indvars.iv to i32
  %9 = shl nuw i32 1, %8
  %10 = and i32 %.val, %9
  %.not = icmp eq i32 %10, 0
  %11 = select i1 %.not, ptr @.str.4, ptr @.str.3
  %12 = getelementptr inbounds nuw [0 x i32], ptr %6, i64 0, i64 %indvars.iv
  %13 = load i32, ptr %12, align 4, !tbaa !14
  tail call void (i32, ptr, ...) @Abc_Print(i32 noundef 1, ptr noundef nonnull @.str.2, ptr noundef nonnull %11, i32 noundef %13)
  %indvars.iv.next = add nuw nsw i64 %indvars.iv, 1
  %14 = load i64, ptr %2, align 4
  %15 = lshr i64 %14, 24
  %16 = and i64 %15, 255
  %17 = icmp samesign ult i64 %indvars.iv.next, %16
  br i1 %17, label %7, label %._crit_edge, !llvm.loop !22

._crit_edge:                                      ; preds = %7, %1
  tail call void (i32, ptr, ...) @Abc_Print(i32 noundef 1, ptr noundef nonnull @.str.5)
  ret void
}